; Function Attrs: mustprogress nounwind uwtable
define hidden noundef i64 @_ZNK4cvc58internal19StatisticTimerValue3getEv(ptr nocapture noundef nonnull readonly align 8 dereferenceable(33) %this) local_unnamed_addr #4 align 2 {
entry:
  %d_duration = getelementptr inbounds i8, ptr %this, i64 16
  %0 = load i64, ptr %d_duration, align 8
  %d_running = getelementptr inbounds i8, ptr %this, i64 32
  %1 = load i8, ptr %d_running, align 8
  %2 = and i8 %1, 1
  %tobool.not = icmp eq i8 %2, 0
  br i1 %tobool.not, label %if.end, label %if.then

if.then:                                          ; preds = %entry
  %call = tail call i64 @_ZNSt6chrono3_V212steady_clock3nowEv() #12
  %d_start = getelementptr inbounds i8, ptr %this, i64 24
  %retval.sroa.0.0.copyload.i1.i = load i64, ptr %d_start, align 8
  %sub.i.i = add i64 %call, %0
  %add.i = sub i64 %sub.i.i, %retval.sroa.0.0.copyload.i1.i
  br label %if.end

if.end:                                           ; preds = %if.then, %entry
  %data.sroa.0.0 = phi i64 [ %0, %entry ], [ %add.i, %if.then ]
  %div.i = sdiv i64 %data.sroa.0.0, 1000000
  ret i64 %div.i
}